
blinky.elf:     file format elf32-littlearm


Disassembly of section .text:

08000000 <__isr_vector>:
 8000000:	2000c000 	andcs	ip, r0, r0
 8000004:	08000191 	stmdaeq	r0, {r0, r4, r7, r8}
 8000008:	080001b9 	stmdaeq	r0, {r0, r3, r4, r5, r7, r8}
 800000c:	080001b9 	stmdaeq	r0, {r0, r3, r4, r5, r7, r8}
 8000010:	080001b9 	stmdaeq	r0, {r0, r3, r4, r5, r7, r8}
 8000014:	080001b9 	stmdaeq	r0, {r0, r3, r4, r5, r7, r8}
 8000018:	080001b9 	stmdaeq	r0, {r0, r3, r4, r5, r7, r8}
	...
 800002c:	080001b9 	stmdaeq	r0, {r0, r3, r4, r5, r7, r8}
 8000030:	080001b9 	stmdaeq	r0, {r0, r3, r4, r5, r7, r8}
 8000034:	00000000 	andeq	r0, r0, r0
 8000038:	080001b9 	stmdaeq	r0, {r0, r3, r4, r5, r7, r8}
 800003c:	080001b9 	stmdaeq	r0, {r0, r3, r4, r5, r7, r8}
 8000040:	080001b9 	stmdaeq	r0, {r0, r3, r4, r5, r7, r8}
 8000044:	080001b9 	stmdaeq	r0, {r0, r3, r4, r5, r7, r8}
 8000048:	080001b9 	stmdaeq	r0, {r0, r3, r4, r5, r7, r8}
 800004c:	080001b9 	stmdaeq	r0, {r0, r3, r4, r5, r7, r8}
 8000050:	080001b9 	stmdaeq	r0, {r0, r3, r4, r5, r7, r8}
 8000054:	080001b9 	stmdaeq	r0, {r0, r3, r4, r5, r7, r8}
 8000058:	080001b9 	stmdaeq	r0, {r0, r3, r4, r5, r7, r8}
 800005c:	080001b9 	stmdaeq	r0, {r0, r3, r4, r5, r7, r8}
 8000060:	080001b9 	stmdaeq	r0, {r0, r3, r4, r5, r7, r8}
 8000064:	080001b9 	stmdaeq	r0, {r0, r3, r4, r5, r7, r8}
 8000068:	080001b9 	stmdaeq	r0, {r0, r3, r4, r5, r7, r8}
 800006c:	080001b9 	stmdaeq	r0, {r0, r3, r4, r5, r7, r8}
 8000070:	080001b9 	stmdaeq	r0, {r0, r3, r4, r5, r7, r8}
 8000074:	080001b9 	stmdaeq	r0, {r0, r3, r4, r5, r7, r8}
 8000078:	080001b9 	stmdaeq	r0, {r0, r3, r4, r5, r7, r8}
 800007c:	080001b9 	stmdaeq	r0, {r0, r3, r4, r5, r7, r8}
 8000080:	080001b9 	stmdaeq	r0, {r0, r3, r4, r5, r7, r8}
 8000084:	080001b9 	stmdaeq	r0, {r0, r3, r4, r5, r7, r8}
 8000088:	080001b9 	stmdaeq	r0, {r0, r3, r4, r5, r7, r8}
 800008c:	080001b9 	stmdaeq	r0, {r0, r3, r4, r5, r7, r8}
 8000090:	080001b9 	stmdaeq	r0, {r0, r3, r4, r5, r7, r8}
 8000094:	080001b9 	stmdaeq	r0, {r0, r3, r4, r5, r7, r8}
 8000098:	080001b9 	stmdaeq	r0, {r0, r3, r4, r5, r7, r8}
 800009c:	080001b9 	stmdaeq	r0, {r0, r3, r4, r5, r7, r8}
 80000a0:	080001b9 	stmdaeq	r0, {r0, r3, r4, r5, r7, r8}
 80000a4:	080001b9 	stmdaeq	r0, {r0, r3, r4, r5, r7, r8}
 80000a8:	080001b9 	stmdaeq	r0, {r0, r3, r4, r5, r7, r8}
 80000ac:	080001b9 	stmdaeq	r0, {r0, r3, r4, r5, r7, r8}
 80000b0:	08000285 	stmdaeq	r0, {r0, r2, r7, r9}
	...
 80000bc:	080001b9 	stmdaeq	r0, {r0, r3, r4, r5, r7, r8}
 80000c0:	080001b9 	stmdaeq	r0, {r0, r3, r4, r5, r7, r8}
	...
 80000cc:	080001b9 	stmdaeq	r0, {r0, r3, r4, r5, r7, r8}
 80000d0:	00000000 	andeq	r0, r0, r0
 80000d4:	080001b9 	stmdaeq	r0, {r0, r3, r4, r5, r7, r8}
 80000d8:	080001b9 	stmdaeq	r0, {r0, r3, r4, r5, r7, r8}
 80000dc:	00000000 	andeq	r0, r0, r0
 80000e0:	080001b9 	stmdaeq	r0, {r0, r3, r4, r5, r7, r8}
 80000e4:	080001b9 	stmdaeq	r0, {r0, r3, r4, r5, r7, r8}
	...
 800010c:	080001b9 	stmdaeq	r0, {r0, r3, r4, r5, r7, r8}
	...
 8000118:	080001b9 	stmdaeq	r0, {r0, r3, r4, r5, r7, r8}
 800011c:	080001b9 	stmdaeq	r0, {r0, r3, r4, r5, r7, r8}
 8000120:	080001b9 	stmdaeq	r0, {r0, r3, r4, r5, r7, r8}
 8000124:	080001b9 	stmdaeq	r0, {r0, r3, r4, r5, r7, r8}
 8000128:	080001b9 	stmdaeq	r0, {r0, r3, r4, r5, r7, r8}
 800012c:	080001b9 	stmdaeq	r0, {r0, r3, r4, r5, r7, r8}
 8000130:	080001b9 	stmdaeq	r0, {r0, r3, r4, r5, r7, r8}
	...
 8000140:	080001b9 	stmdaeq	r0, {r0, r3, r4, r5, r7, r8}
 8000144:	080001b9 	stmdaeq	r0, {r0, r3, r4, r5, r7, r8}
 8000148:	080001b9 	stmdaeq	r0, {r0, r3, r4, r5, r7, r8}
 800014c:	080001b9 	stmdaeq	r0, {r0, r3, r4, r5, r7, r8}
 8000150:	080001b9 	stmdaeq	r0, {r0, r3, r4, r5, r7, r8}
 8000154:	080001b9 	stmdaeq	r0, {r0, r3, r4, r5, r7, r8}
 8000158:	080001b9 	stmdaeq	r0, {r0, r3, r4, r5, r7, r8}
 800015c:	080001b9 	stmdaeq	r0, {r0, r3, r4, r5, r7, r8}
 8000160:	080001b9 	stmdaeq	r0, {r0, r3, r4, r5, r7, r8}
 8000164:	080001b9 	stmdaeq	r0, {r0, r3, r4, r5, r7, r8}
 8000168:	080001b9 	stmdaeq	r0, {r0, r3, r4, r5, r7, r8}
 800016c:	00000000 	andeq	r0, r0, r0
 8000170:	080001b9 	stmdaeq	r0, {r0, r3, r4, r5, r7, r8}
 8000174:	080001b9 	stmdaeq	r0, {r0, r3, r4, r5, r7, r8}
	...
 8000180:	080001b9 	stmdaeq	r0, {r0, r3, r4, r5, r7, r8}
 8000184:	080001b9 	stmdaeq	r0, {r0, r3, r4, r5, r7, r8}
 8000188:	080001b9 	stmdaeq	r0, {r0, r3, r4, r5, r7, r8}
 800018c:	080001b9 	stmdaeq	r0, {r0, r3, r4, r5, r7, r8}

08000190 <Reset_Handler>:
 8000190:	4906      	ldr	r1, [pc, #24]	@ (80001ac <Reset_Handler+0x1c>)
 8000192:	4a07      	ldr	r2, [pc, #28]	@ (80001b0 <Reset_Handler+0x20>)
 8000194:	4b07      	ldr	r3, [pc, #28]	@ (80001b4 <Reset_Handler+0x24>)
 8000196:	429a      	cmp	r2, r3
 8000198:	bfbe      	ittt	lt
 800019a:	f851 0b04 	ldrlt.w	r0, [r1], #4
 800019e:	f842 0b04 	strlt.w	r0, [r2], #4
 80001a2:	e7f8      	blt.n	8000196 <Reset_Handler+0x6>
 80001a4:	f000 f80a 	bl	80001bc <SystemInit>
 80001a8:	f000 f89c 	bl	80002e4 <_start>
 80001ac:	080002f4 	stmdaeq	r0, {r2, r4, r5, r6, r7, r9}
 80001b0:	20000000 	andcs	r0, r0, r0
 80001b4:	20000030 	andcs	r0, r0, r0, lsr r0

080001b8 <ADC1_IRQHandler>:
 80001b8:	e7fe      	b.n	80001b8 <ADC1_IRQHandler>
 80001ba:	bf00      	nop

080001bc <SystemInit>:
 80001bc:	b480      	push	{r7}
 80001be:	af00      	add	r7, sp, #0
 80001c0:	4b27      	ldr	r3, [pc, #156]	@ (8000260 <SystemInit+0xa4>)
 80001c2:	681b      	ldr	r3, [r3, #0]
 80001c4:	681a      	ldr	r2, [r3, #0]
 80001c6:	4b26      	ldr	r3, [pc, #152]	@ (8000260 <SystemInit+0xa4>)
 80001c8:	681b      	ldr	r3, [r3, #0]
 80001ca:	f042 0202 	orr.w	r2, r2, #2
 80001ce:	601a      	str	r2, [r3, #0]
 80001d0:	4b24      	ldr	r3, [pc, #144]	@ (8000264 <SystemInit+0xa8>)
 80001d2:	681b      	ldr	r3, [r3, #0]
 80001d4:	681a      	ldr	r2, [r3, #0]
 80001d6:	4b23      	ldr	r3, [pc, #140]	@ (8000264 <SystemInit+0xa8>)
 80001d8:	681b      	ldr	r3, [r3, #0]
 80001da:	f042 0201 	orr.w	r2, r2, #1
 80001de:	601a      	str	r2, [r3, #0]
 80001e0:	4b21      	ldr	r3, [pc, #132]	@ (8000268 <SystemInit+0xac>)
 80001e2:	681b      	ldr	r3, [r3, #0]
 80001e4:	681a      	ldr	r2, [r3, #0]
 80001e6:	4b20      	ldr	r3, [pc, #128]	@ (8000268 <SystemInit+0xac>)
 80001e8:	681b      	ldr	r3, [r3, #0]
 80001ea:	f422 5200 	bic.w	r2, r2, #8192	@ 0x2000
 80001ee:	601a      	str	r2, [r3, #0]
 80001f0:	4b1d      	ldr	r3, [pc, #116]	@ (8000268 <SystemInit+0xac>)
 80001f2:	681b      	ldr	r3, [r3, #0]
 80001f4:	681a      	ldr	r2, [r3, #0]
 80001f6:	4b1c      	ldr	r3, [pc, #112]	@ (8000268 <SystemInit+0xac>)
 80001f8:	681b      	ldr	r3, [r3, #0]
 80001fa:	f442 5280 	orr.w	r2, r2, #4096	@ 0x1000
 80001fe:	601a      	str	r2, [r3, #0]
 8000200:	4b1a      	ldr	r3, [pc, #104]	@ (800026c <SystemInit+0xb0>)
 8000202:	681b      	ldr	r3, [r3, #0]
 8000204:	681a      	ldr	r2, [r3, #0]
 8000206:	4b19      	ldr	r3, [pc, #100]	@ (800026c <SystemInit+0xb0>)
 8000208:	681b      	ldr	r3, [r3, #0]
 800020a:	f022 0240 	bic.w	r2, r2, #64	@ 0x40
 800020e:	601a      	str	r2, [r3, #0]
 8000210:	4b17      	ldr	r3, [pc, #92]	@ (8000270 <SystemInit+0xb4>)
 8000212:	681b      	ldr	r3, [r3, #0]
 8000214:	f240 128f 	movw	r2, #399	@ 0x18f
 8000218:	801a      	strh	r2, [r3, #0]
 800021a:	4b16      	ldr	r3, [pc, #88]	@ (8000274 <SystemInit+0xb8>)
 800021c:	681b      	ldr	r3, [r3, #0]
 800021e:	f242 720f 	movw	r2, #9999	@ 0x270f
 8000222:	601a      	str	r2, [r3, #0]
 8000224:	4b14      	ldr	r3, [pc, #80]	@ (8000278 <SystemInit+0xbc>)
 8000226:	681b      	ldr	r3, [r3, #0]
 8000228:	881a      	ldrh	r2, [r3, #0]
 800022a:	4b13      	ldr	r3, [pc, #76]	@ (8000278 <SystemInit+0xbc>)
 800022c:	681b      	ldr	r3, [r3, #0]
 800022e:	f042 0201 	orr.w	r2, r2, #1
 8000232:	b292      	uxth	r2, r2
 8000234:	801a      	strh	r2, [r3, #0]
 8000236:	4b11      	ldr	r3, [pc, #68]	@ (800027c <SystemInit+0xc0>)
 8000238:	681b      	ldr	r3, [r3, #0]
 800023a:	681a      	ldr	r2, [r3, #0]
 800023c:	4b0f      	ldr	r3, [pc, #60]	@ (800027c <SystemInit+0xc0>)
 800023e:	681b      	ldr	r3, [r3, #0]
 8000240:	f042 5280 	orr.w	r2, r2, #268435456	@ 0x10000000
 8000244:	601a      	str	r2, [r3, #0]
 8000246:	4b0e      	ldr	r3, [pc, #56]	@ (8000280 <SystemInit+0xc4>)
 8000248:	681b      	ldr	r3, [r3, #0]
 800024a:	881a      	ldrh	r2, [r3, #0]
 800024c:	4b0c      	ldr	r3, [pc, #48]	@ (8000280 <SystemInit+0xc4>)
 800024e:	681b      	ldr	r3, [r3, #0]
 8000250:	f042 0201 	orr.w	r2, r2, #1
 8000254:	b292      	uxth	r2, r2
 8000256:	801a      	strh	r2, [r3, #0]
 8000258:	bf00      	nop
 800025a:	46bd      	mov	sp, r7
 800025c:	bc80      	pop	{r7}
 800025e:	4770      	bx	lr
 8000260:	20000000 	andcs	r0, r0, r0
 8000264:	20000004 	andcs	r0, r0, r4
 8000268:	2000001c 	andcs	r0, r0, ip, lsl r0
 800026c:	20000020 	andcs	r0, r0, r0, lsr #32
 8000270:	20000014 	andcs	r0, r0, r4, lsl r0
 8000274:	20000018 	andcs	r0, r0, r8, lsl r0
 8000278:	2000000c 	andcs	r0, r0, ip
 800027c:	2000002c 	andcs	r0, r0, ip, lsr #32
 8000280:	20000008 	andcs	r0, r0, r8

08000284 <TIM2_IRQHandler>:
 8000284:	b480      	push	{r7}
 8000286:	b083      	sub	sp, #12
 8000288:	af00      	add	r7, sp, #0
 800028a:	4b12      	ldr	r3, [pc, #72]	@ (80002d4 <TIM2_IRQHandler+0x50>)
 800028c:	681b      	ldr	r3, [r3, #0]
 800028e:	881b      	ldrh	r3, [r3, #0]
 8000290:	f003 0301 	and.w	r3, r3, #1
 8000294:	2b00      	cmp	r3, #0
 8000296:	d018      	beq.n	80002ca <TIM2_IRQHandler+0x46>
 8000298:	4b0e      	ldr	r3, [pc, #56]	@ (80002d4 <TIM2_IRQHandler+0x50>)
 800029a:	681b      	ldr	r3, [r3, #0]
 800029c:	881a      	ldrh	r2, [r3, #0]
 800029e:	4b0d      	ldr	r3, [pc, #52]	@ (80002d4 <TIM2_IRQHandler+0x50>)
 80002a0:	681b      	ldr	r3, [r3, #0]
 80002a2:	f022 0201 	bic.w	r2, r2, #1
 80002a6:	b292      	uxth	r2, r2
 80002a8:	801a      	strh	r2, [r3, #0]
 80002aa:	4b0b      	ldr	r3, [pc, #44]	@ (80002d8 <TIM2_IRQHandler+0x54>)
 80002ac:	681b      	ldr	r3, [r3, #0]
 80002ae:	681b      	ldr	r3, [r3, #0]
 80002b0:	099b      	lsrs	r3, r3, #6
 80002b2:	f003 0301 	and.w	r3, r3, #1
 80002b6:	607b      	str	r3, [r7, #4]
 80002b8:	4a08      	ldr	r2, [pc, #32]	@ (80002dc <TIM2_IRQHandler+0x58>)
 80002ba:	687b      	ldr	r3, [r7, #4]
 80002bc:	f852 3023 	ldr.w	r3, [r2, r3, lsl #2]
 80002c0:	2201      	movs	r2, #1
 80002c2:	409a      	lsls	r2, r3
 80002c4:	4b06      	ldr	r3, [pc, #24]	@ (80002e0 <TIM2_IRQHandler+0x5c>)
 80002c6:	681b      	ldr	r3, [r3, #0]
 80002c8:	601a      	str	r2, [r3, #0]
 80002ca:	bf00      	nop
 80002cc:	370c      	adds	r7, #12
 80002ce:	46bd      	mov	sp, r7
 80002d0:	bc80      	pop	{r7}
 80002d2:	4770      	bx	lr
 80002d4:	20000010 	andcs	r0, r0, r0, lsl r0
 80002d8:	20000024 	andcs	r0, r0, r4, lsr #32
 80002dc:	080002ec 	stmdaeq	r0, {r2, r3, r5, r6, r7, r9}
 80002e0:	20000028 	andcs	r0, r0, r8, lsr #32

080002e4 <_start>:
 80002e4:	b480      	push	{r7}
 80002e6:	af00      	add	r7, sp, #0
 80002e8:	e7fe      	b.n	80002e8 <_start+0x4>
 80002ea:	bf00      	nop

080002ec <set_or_reset>:
 80002ec:	00000006 	andeq	r0, r0, r6
 80002f0:	00000016 	andeq	r0, r0, r6, lsl r0
